target datalayout = "e-m:e-p270:32:32-p271:32:32-p272:64:64-i64:64-i128:128-f80:128-n8:16:32:64-S128"
target triple = "x86_64-pc-linux-gnu"

%"class.google::protobuf::io::ZeroCopyInputStream" = type { ptr }
%"class.google::protobuf::io::ConcatenatingInputStream" = type { %"class.google::protobuf::io::ZeroCopyInputStream", ptr, i32, i64 }

; Function Attrs: mustprogress uwtable
define hidden noundef i64 @_ZNK6google8protobuf2io24ConcatenatingInputStream9ByteCountEv(ptr noundef nonnull align 8 dereferenceable(32) %0) unnamed_addr #4 align 2 {
  %2 = alloca i64, align 8
  %3 = alloca ptr, align 8
  store ptr %0, ptr %3, align 8, !tbaa !76
  %4 = load ptr, ptr %3, align 8
  %5 = getelementptr inbounds nuw %"class.google::protobuf::io::ConcatenatingInputStream", ptr %4, i32 0, i32 2
  %6 = load i32, ptr %5, align 8, !tbaa !83
  %7 = icmp eq i32 %6, 0
  br i1 %7, label %8, label %11

8:                                                ; preds = %1
  %9 = getelementptr inbounds nuw %"class.google::protobuf::io::ConcatenatingInputStream", ptr %4, i32 0, i32 3
  %10 = load i64, ptr %9, align 8, !tbaa !84
  store i64 %10, ptr %2, align 8
  br label %23

11:                                               ; preds = %1
  %12 = getelementptr inbounds nuw %"class.google::protobuf::io::ConcatenatingInputStream", ptr %4, i32 0, i32 3
  %13 = load i64, ptr %12, align 8, !tbaa !84
  %14 = getelementptr inbounds nuw %"class.google::protobuf::io::ConcatenatingInputStream", ptr %4, i32 0, i32 1
  %15 = load ptr, ptr %14, align 8, !tbaa !80
  %16 = getelementptr inbounds ptr, ptr %15, i64 0
  %17 = load ptr, ptr %16, align 8, !tbaa !12
  %18 = load ptr, ptr %17, align 8, !tbaa !10
  %19 = getelementptr inbounds ptr, ptr %18, i64 5
  %20 = load ptr, ptr %19, align 8
  %21 = call noundef i64 %20(ptr noundef nonnull align 8 dereferenceable(8) %17)
  %22 = add nsw i64 %13, %21
  store i64 %22, ptr %2, align 8
  br label %23

23:                                               ; preds = %11, %8
  %24 = load i64, ptr %2, align 8
  ret i64 %24
}